target datalayout = "e-m:e-p270:32:32-p271:32:32-p272:64:64-i64:64-i128:128-f80:128-n8:16:32:64-S128"
target triple = "x86_64-pc-linux-gnu"

%struct.darktable_t = type { %struct.dt_codepath_t, i32, i32, ptr, ptr, ptr, ptr, ptr, ptr, ptr, ptr, ptr, ptr, ptr, ptr, ptr, ptr, ptr, ptr, ptr, ptr, ptr, ptr, ptr, ptr, ptr, ptr, ptr, ptr, ptr, [64 x %struct.dt_pthread_mutex_t], %struct.dt_pthread_mutex_t, %struct.dt_pthread_mutex_t, %struct.dt_pthread_mutex_t, %struct.dt_pthread_mutex_t, %struct.dt_pthread_mutex_t, ptr, ptr, ptr, ptr, ptr, ptr, ptr, ptr, ptr, ptr, ptr, ptr, ptr, %struct.dt_lua_state_t, ptr, double, ptr, i32, [47 x i32], i32, i32, ptr, ptr, %struct.dt_sys_resources_t, %struct.dt_backthumb_t, %struct.dt_gimp_t }
%struct.dt_codepath_t = type { i8, [3 x i8] }
%struct.dt_pthread_mutex_t = type { %union.pthread_mutex_t }
%union.pthread_mutex_t = type { %struct.__pthread_mutex_s }
%struct.__pthread_mutex_s = type { i32, i32, i32, i32, i32, i16, i16, %struct.__pthread_internal_list }
%struct.__pthread_internal_list = type { ptr, ptr }
%struct.dt_lua_state_t = type { i32 }
%struct.dt_sys_resources_t = type { i64, i64, ptr, ptr, i32 }
%struct.dt_backthumb_t = type { double, double, i32, i32, i32, i32 }
%struct.dt_gimp_t = type { i32, ptr, ptr, i32, i32 }
%struct.dt_control_image_enumerator_t = type { ptr, i32, ptr, i32 }
%struct.dt_control_datetime_t = type { i64, [24 x i8] }

@darktable = external global %struct.darktable_t, align 8
@.str.166 = private unnamed_addr constant [12 x i8] c"time offset\00", align 1

; Function Attrs: nounwind uwtable
define internal void @dt_control_image_enumerator_cleanup(ptr noundef %0) #0 {
  %2 = alloca ptr, align 8
  %3 = alloca ptr, align 8
  store ptr %0, ptr %2, align 8, !tbaa !6
  call void @llvm.lifetime.start.p0(i64 8, ptr %3) #14
  %4 = load ptr, ptr %2, align 8, !tbaa !6
  store ptr %4, ptr %3, align 8, !tbaa !53
  %5 = load ptr, ptr %3, align 8, !tbaa !53
  %6 = getelementptr inbounds nuw %struct.dt_control_image_enumerator_t, ptr %5, i32 0, i32 0
  %7 = load ptr, ptr %6, align 8, !tbaa !57
  call void @g_list_free(ptr noundef %7)
  %8 = load ptr, ptr %3, align 8, !tbaa !53
  %9 = getelementptr inbounds nuw %struct.dt_control_image_enumerator_t, ptr %8, i32 0, i32 0
  store ptr null, ptr %9, align 8, !tbaa !57
  %10 = load ptr, ptr %3, align 8, !tbaa !53
  %11 = getelementptr inbounds nuw %struct.dt_control_image_enumerator_t, ptr %10, i32 0, i32 3
  %12 = load i32, ptr %11, align 8, !tbaa !55
  %13 = icmp ne i32 %12, 0
  br i1 %13, label %14, label %15

14:                                               ; preds = %1
  call void @g_main_context_invoke(ptr noundef null, ptr noundef @_cursor_clear_busy, ptr noundef null)
  br label %15

15:                                               ; preds = %14, %1
  %16 = load ptr, ptr %3, align 8, !tbaa !53
  call void @free(ptr noundef %16) #14
  call void @llvm.lifetime.end.p0(i64 8, ptr %3) #14
  ret void
}

; Function Attrs: nounwind uwtable
define internal ptr @dt_control_image_enumerator_alloc() #0 {
  %1 = alloca ptr, align 8
  %2 = alloca ptr, align 8
  %3 = alloca i32, align 4
  call void @llvm.lifetime.start.p0(i64 8, ptr %2) #14
  %4 = call noalias ptr @calloc(i64 noundef 1, i64 noundef 32) #19
  store ptr %4, ptr %2, align 8, !tbaa !53
  %5 = load ptr, ptr %2, align 8, !tbaa !53
  %6 = icmp ne ptr %5, null
  br i1 %6, label %8, label %7

7:                                                ; preds = %0
  store ptr null, ptr %1, align 8
  store i32 1, ptr %3, align 4
  br label %10

8:                                                ; preds = %0
  %9 = load ptr, ptr %2, align 8, !tbaa !53
  store ptr %9, ptr %1, align 8
  store i32 1, ptr %3, align 4
  br label %10

10:                                               ; preds = %8, %7
  call void @llvm.lifetime.end.p0(i64 8, ptr %2) #14
  %11 = load ptr, ptr %1, align 8
  ret ptr %11
}

; Function Attrs: nounwind uwtable
define internal ptr @dt_control_datetime_alloc() #0 {
  %1 = alloca ptr, align 8
  %2 = alloca ptr, align 8
  %3 = alloca i32, align 4
  call void @llvm.lifetime.start.p0(i64 8, ptr %2) #14
  %4 = call ptr @dt_control_image_enumerator_alloc()
  store ptr %4, ptr %2, align 8, !tbaa !53
  %5 = load ptr, ptr %2, align 8, !tbaa !53
  %6 = icmp ne ptr %5, null
  br i1 %6, label %8, label %7

7:                                                ; preds = %0
  store ptr null, ptr %1, align 8
  store i32 1, ptr %3, align 4
  br label %20

8:                                                ; preds = %0
  %9 = call noalias ptr @calloc(i64 noundef 1, i64 noundef 32) #19
  %10 = load ptr, ptr %2, align 8, !tbaa !53
  %11 = getelementptr inbounds nuw %struct.dt_control_image_enumerator_t, ptr %10, i32 0, i32 2
  store ptr %9, ptr %11, align 8, !tbaa !59
  %12 = load ptr, ptr %2, align 8, !tbaa !53
  %13 = getelementptr inbounds nuw %struct.dt_control_image_enumerator_t, ptr %12, i32 0, i32 2
  %14 = load ptr, ptr %13, align 8, !tbaa !59
  %15 = icmp ne ptr %14, null
  br i1 %15, label %18, label %16

16:                                               ; preds = %8
  %17 = load ptr, ptr %2, align 8, !tbaa !53
  call void @dt_control_image_enumerator_cleanup(ptr noundef %17)
  store ptr null, ptr %1, align 8
  store i32 1, ptr %3, align 4
  br label %20

18:                                               ; preds = %8
  %19 = load ptr, ptr %2, align 8, !tbaa !53
  store ptr %19, ptr %1, align 8
  store i32 1, ptr %3, align 4
  br label %20

20:                                               ; preds = %18, %16, %7
  call void @llvm.lifetime.end.p0(i64 8, ptr %2) #14
  %21 = load ptr, ptr %1, align 8
  ret ptr %21
}

; Function Attrs: nounwind uwtable
define internal ptr @dt_control_datetime_job_create(i64 noundef %0, ptr noundef %1, ptr noundef %2) #0 {
  %4 = alloca ptr, align 8
  %5 = alloca i64, align 8
  %6 = alloca ptr, align 8
  %7 = alloca ptr, align 8
  %8 = alloca ptr, align 8
  %9 = alloca i32, align 4
  %10 = alloca ptr, align 8
  %11 = alloca ptr, align 8
  store i64 %0, ptr %5, align 8, !tbaa !73
  store ptr %1, ptr %6, align 8, !tbaa !49
  store ptr %2, ptr %7, align 8, !tbaa !60
  call void @llvm.lifetime.start.p0(i64 8, ptr %8) #14
  %12 = call ptr (ptr, ptr, ...) @dt_control_job_create(ptr noundef @dt_control_datetime_job_run, ptr noundef @.str.166)
  store ptr %12, ptr %8, align 8, !tbaa !51
  %13 = load ptr, ptr %8, align 8, !tbaa !51
  %14 = icmp ne ptr %13, null
  br i1 %14, label %16, label %15

15:                                               ; preds = %3
  store ptr null, ptr %4, align 8
  store i32 1, ptr %9, align 4
  br label %61

16:                                               ; preds = %3
  call void @llvm.lifetime.start.p0(i64 8, ptr %10) #14
  %17 = call ptr @dt_control_datetime_alloc()
  store ptr %17, ptr %10, align 8, !tbaa !53
  %18 = load ptr, ptr %10, align 8, !tbaa !53
  %19 = icmp ne ptr %18, null
  br i1 %19, label %22, label %20

20:                                               ; preds = %16
  %21 = load ptr, ptr %8, align 8, !tbaa !51
  call void @dt_control_job_dispose(ptr noundef %21)
  store ptr null, ptr %4, align 8
  store i32 1, ptr %9, align 4
  br label %60

22:                                               ; preds = %16
  %23 = load ptr, ptr %8, align 8, !tbaa !51
  %24 = call ptr @dcgettext(ptr noundef null, ptr noundef @.str.166, i32 noundef 5) #14
  call void @dt_control_job_add_progress(ptr noundef %23, ptr noundef %24, i32 noundef 0)
  %25 = load ptr, ptr %8, align 8, !tbaa !51
  %26 = load ptr, ptr %10, align 8, !tbaa !53
  call void @dt_control_job_set_params(ptr noundef %25, ptr noundef %26, ptr noundef @dt_control_datetime_job_cleanup)
  %27 = load ptr, ptr %7, align 8, !tbaa !60
  %28 = icmp ne ptr %27, null
  br i1 %28, label %29, label %33

29:                                               ; preds = %22
  %30 = load ptr, ptr %7, align 8, !tbaa !60
  %31 = load ptr, ptr %10, align 8, !tbaa !53
  %32 = getelementptr inbounds nuw %struct.dt_control_image_enumerator_t, ptr %31, i32 0, i32 0
  store ptr %30, ptr %32, align 8, !tbaa !57
  br label %37

33:                                               ; preds = %22
  %34 = call ptr @dt_act_on_get_images(i32 noundef 1, i32 noundef 1, i32 noundef 0)
  %35 = load ptr, ptr %10, align 8, !tbaa !53
  %36 = getelementptr inbounds nuw %struct.dt_control_image_enumerator_t, ptr %35, i32 0, i32 0
  store ptr %34, ptr %36, align 8, !tbaa !57
  br label %37

37:                                               ; preds = %33, %29
  call void @llvm.lifetime.start.p0(i64 8, ptr %11) #14
  %38 = load ptr, ptr %10, align 8, !tbaa !53
  %39 = getelementptr inbounds nuw %struct.dt_control_image_enumerator_t, ptr %38, i32 0, i32 2
  %40 = load ptr, ptr %39, align 8, !tbaa !59
  store ptr %40, ptr %11, align 8, !tbaa !218
  %41 = load i64, ptr %5, align 8, !tbaa !73
  %42 = load ptr, ptr %11, align 8, !tbaa !218
  %43 = getelementptr inbounds nuw %struct.dt_control_datetime_t, ptr %42, i32 0, i32 0
  store i64 %41, ptr %43, align 8, !tbaa !220
  %44 = load ptr, ptr %6, align 8, !tbaa !49
  %45 = icmp ne ptr %44, null
  br i1 %45, label %46, label %51

46:                                               ; preds = %37
  %47 = load ptr, ptr %11, align 8, !tbaa !218
  %48 = getelementptr inbounds nuw %struct.dt_control_datetime_t, ptr %47, i32 0, i32 1
  %49 = getelementptr inbounds [24 x i8], ptr %48, i64 0, i64 0
  %50 = load ptr, ptr %6, align 8, !tbaa !49
  call void @llvm.memcpy.p0.p0.i64(ptr align 8 %49, ptr align 1 %50, i64 24, i1 false)
  br label %55

51:                                               ; preds = %37
  %52 = load ptr, ptr %11, align 8, !tbaa !218
  %53 = getelementptr inbounds nuw %struct.dt_control_datetime_t, ptr %52, i32 0, i32 1
  %54 = getelementptr inbounds [24 x i8], ptr %53, i64 0, i64 0
  store i8 0, ptr %54, align 8, !tbaa !81
  br label %55

55:                                               ; preds = %51, %46
  %56 = load ptr, ptr %11, align 8, !tbaa !218
  %57 = load ptr, ptr %10, align 8, !tbaa !53
  %58 = getelementptr inbounds nuw %struct.dt_control_image_enumerator_t, ptr %57, i32 0, i32 2
  store ptr %56, ptr %58, align 8, !tbaa !59
  %59 = load ptr, ptr %8, align 8, !tbaa !51
  store ptr %59, ptr %4, align 8
  store i32 1, ptr %9, align 4
  call void @llvm.lifetime.end.p0(i64 8, ptr %11) #14
  br label %60

60:                                               ; preds = %55, %20
  call void @llvm.lifetime.end.p0(i64 8, ptr %10) #14
  br label %61

61:                                               ; preds = %60, %15
  call void @llvm.lifetime.end.p0(i64 8, ptr %8) #14
  %62 = load ptr, ptr %4, align 8
  ret ptr %62
}

; Function Attrs: nounwind uwtable
define void @dt_control_datetime(i64 noundef %0, ptr noundef %1, ptr noundef %2) #0 {
  %4 = alloca i64, align 8
  %5 = alloca ptr, align 8
  %6 = alloca ptr, align 8
  store i64 %0, ptr %4, align 8, !tbaa !73
  store ptr %1, ptr %5, align 8, !tbaa !49
  store ptr %2, ptr %6, align 8, !tbaa !60
  %7 = load ptr, ptr getelementptr inbounds nuw (%struct.darktable_t, ptr @darktable, i32 0, i32 12), align 8, !tbaa !10
  %8 = load i64, ptr %4, align 8, !tbaa !73
  %9 = load ptr, ptr %5, align 8, !tbaa !49
  %10 = load ptr, ptr %6, align 8, !tbaa !60
  %11 = call ptr @dt_control_datetime_job_create(i64 noundef %8, ptr noundef %9, ptr noundef %10)
  %12 = call i32 @dt_control_add_job(ptr noundef %7, i32 noundef 0, ptr noundef %11)
  ret void
}