; Function Attrs: nounwind uwtable
define void @dt_control_datetime(i64 noundef %0, ptr noundef readonly %1, ptr noundef %2) local_unnamed_addr #0 {
  %4 = load ptr, ptr getelementptr inbounds nuw (i8, ptr @darktable, i64 88), align 8, !tbaa !6
  %5 = tail call ptr (ptr, ptr, ...) @dt_control_job_create(ptr noundef nonnull @dt_control_datetime_job_run, ptr noundef nonnull @.str.166) #17
  %.not.i = icmp eq ptr %5, null
  br i1 %.not.i, label %dt_control_datetime_job_create.exit, label %6

6:                                                ; preds = %3
  %7 = tail call noalias noundef dereferenceable_or_null(32) ptr @calloc(i64 noundef 1, i64 noundef 32) #18
  %.not.i.i = icmp eq ptr %7, null
  br i1 %.not.i.i, label %11, label %8

8:                                                ; preds = %6
  %9 = tail call noalias dereferenceable_or_null(32) ptr @calloc(i64 noundef 1, i64 noundef 32) #18
  %10 = getelementptr inbounds nuw i8, ptr %7, i64 16
  store ptr %9, ptr %10, align 8, !tbaa !52
  %.not7.i.i = icmp eq ptr %9, null
  br i1 %.not7.i.i, label %dt_control_image_enumerator_cleanup.exit.i.i, label %dt_control_datetime_alloc.exit.i

dt_control_image_enumerator_cleanup.exit.i.i:     ; preds = %8
  tail call void @g_list_free(ptr noundef null) #17
  tail call void @free(ptr noundef nonnull %7) #17
  br label %11

11:                                               ; preds = %dt_control_image_enumerator_cleanup.exit.i.i, %6
  tail call void @dt_control_job_dispose(ptr noundef nonnull %5) #17
  br label %dt_control_datetime_job_create.exit

dt_control_datetime_alloc.exit.i:                 ; preds = %8
  %12 = tail call ptr @dcgettext(ptr noundef null, ptr noundef nonnull @.str.166, i32 noundef 5) #17
  tail call void @dt_control_job_add_progress(ptr noundef nonnull %5, ptr noundef %12, i32 noundef 0) #17
  tail call void @dt_control_job_set_params(ptr noundef nonnull %5, ptr noundef nonnull %7, ptr noundef nonnull @dt_control_datetime_job_cleanup) #17
  %.not25.i = icmp eq ptr %2, null
  br i1 %.not25.i, label %13, label %15

13:                                               ; preds = %dt_control_datetime_alloc.exit.i
  %14 = tail call ptr @dt_act_on_get_images(i32 noundef 1, i32 noundef 1, i32 noundef 0) #17
  br label %15

15:                                               ; preds = %13, %dt_control_datetime_alloc.exit.i
  %storemerge.i = phi ptr [ %14, %13 ], [ %2, %dt_control_datetime_alloc.exit.i ]
  store ptr %storemerge.i, ptr %7, align 8, !tbaa !50
  %16 = load ptr, ptr %10, align 8, !tbaa !52
  store i64 %0, ptr %16, align 8, !tbaa !200
  %.not26.i = icmp eq ptr %1, null
  %17 = getelementptr inbounds nuw i8, ptr %16, i64 8
  br i1 %.not26.i, label %19, label %18

18:                                               ; preds = %15
  tail call void @llvm.memcpy.p0.p0.i64(ptr noundef nonnull align 8 dereferenceable(24) %17, ptr noundef nonnull readonly align 1 dereferenceable(24) %1, i64 24, i1 false)
  br label %20

19:                                               ; preds = %15
  store i8 0, ptr %17, align 8, !tbaa !72
  br label %20

20:                                               ; preds = %19, %18
  store ptr %16, ptr %10, align 8, !tbaa !52
  br label %dt_control_datetime_job_create.exit

dt_control_datetime_job_create.exit:              ; preds = %3, %11, %20
  %.0.i = phi ptr [ null, %3 ], [ %5, %20 ], [ null, %11 ]
  %21 = tail call i32 @dt_control_add_job(ptr noundef %4, i32 noundef 0, ptr noundef %.0.i) #17
  ret void
}